target datalayout = "e-m:e-p270:32:32-p271:32:32-p272:64:64-i64:64-i128:128-f80:128-n8:16:32:64-S128"
target triple = "x86_64-pc-linux-gnu"

%struct.H5C_class_t = type { i32, ptr, i32, i32, ptr, ptr, ptr, ptr, ptr, ptr, ptr, ptr, ptr, ptr }
%struct.H5EA_sblock_t = type { %struct.H5C_cache_entry_t, i64, ptr, ptr, ptr, i64, i64, i8, ptr, ptr, i32, i64, i64, i64, i64, i64 }
%struct.H5C_cache_entry_t = type { ptr, i64, i64, ptr, i8, ptr, i8, i8, i8, i8, i32, i8, i8, i8, i8, i8, i32, ptr, i32, i32, i32, i32, i32, i8, i8, ptr, ptr, ptr, ptr, ptr, ptr, i8, i32, i8, i64, ptr, i64, i64, i32, i8, i32, i32, i8, ptr, ptr, ptr }
%struct.H5EA_hdr_t = type { %struct.H5C_cache_entry_t, %struct.H5EA_create_t, i64, %struct.H5EA_stat_t, %struct.anon.1, i64, i64, i64, ptr, i64, i8, i64, i64, i8, i64, ptr, i64, ptr, i8, ptr, ptr }
%struct.H5EA_create_t = type { ptr, i8, i8, i8, i8, i8, i8 }
%struct.H5EA_stat_t = type { %struct.anon, %struct.anon.0 }
%struct.anon = type { i64, i64, i64 }
%struct.anon.0 = type { i64, i64, i64, i64, i64, i64 }
%struct.anon.1 = type { i64, ptr }
%struct.H5EA_sblock_cache_ud_t = type { ptr, ptr, i32, i64 }

@H5EA_init_g = external global i8, align 1
@H5_libterm_g = external global i8, align 1
@.str.1 = private unnamed_addr constant [104 x i8] c"generated/home/dtcxzyw/WorkSpace/Projects/compilers/llvm-opt-benchmark/bench/hdf5/hdf5/src/H5EAsblock.c\00", align 1
@H5E_EARRAY_g = external global i64, align 8
@H5AC_EARRAY_SBLOCK = external constant [1 x %struct.H5C_class_t], align 16
@H5E_CANTSET_g = external global i64, align 8
@.str.9 = private unnamed_addr constant [61 x i8] c"unable to add extensible array entry as child of array proxy\00", align 1
@__func__.H5EA__sblock_protect = private unnamed_addr constant [21 x i8] c"H5EA__sblock_protect\00", align 1
@H5E_CANTPROTECT_g = external global i64, align 8
@.str.12 = private unnamed_addr constant [63 x i8] c"unable to protect extensible array super block, address = %llu\00", align 1
@H5E_CANTUNPROTECT_g = external global i64, align 8
@.str.13 = private unnamed_addr constant [65 x i8] c"unable to unprotect extensible array super block, address = %llu\00", align 1

; Function Attrs: nounwind uwtable
define ptr @H5EA__sblock_protect(ptr noundef %0, ptr noundef %1, i64 noundef %2, i32 noundef %3, i32 noundef %4) #0 {
  %6 = alloca ptr, align 8
  %7 = alloca ptr, align 8
  %8 = alloca i64, align 8
  %9 = alloca i32, align 4
  %10 = alloca i32, align 4
  %11 = alloca ptr, align 8
  %12 = alloca %struct.H5EA_sblock_cache_ud_t, align 8
  %13 = alloca ptr, align 8
  %14 = alloca i8, align 1
  store ptr %0, ptr %6, align 8, !tbaa !3
  store ptr %1, ptr %7, align 8, !tbaa !8
  store i64 %2, ptr %8, align 8, !tbaa !18
  store i32 %3, ptr %9, align 4, !tbaa !10
  store i32 %4, ptr %10, align 4, !tbaa !10
  call void @llvm.lifetime.start.p0(i64 8, ptr %11) #4
  store ptr null, ptr %11, align 8, !tbaa !12
  call void @llvm.lifetime.start.p0(i64 32, ptr %12) #4
  call void @llvm.lifetime.start.p0(i64 8, ptr %13) #4
  store ptr null, ptr %13, align 8, !tbaa !12
  call void @llvm.lifetime.start.p0(i64 1, ptr %14) #4
  store i8 0, ptr %14, align 1, !tbaa !14
  %15 = load i8, ptr @H5EA_init_g, align 1, !tbaa !14, !range !16, !noundef !17
  %16 = trunc i8 %15 to i1
  br i1 %16, label %21, label %17

17:                                               ; preds = %5
  %18 = load i8, ptr @H5_libterm_g, align 1, !tbaa !14, !range !16, !noundef !17
  %19 = trunc i8 %18 to i1
  %20 = xor i1 %19, true
  br label %21

21:                                               ; preds = %17, %5
  %22 = phi i1 [ true, %5 ], [ %20, %17 ]
  %23 = xor i1 %22, true
  %24 = xor i1 %23, true
  %25 = zext i1 %24 to i32
  %26 = sext i32 %25 to i64
  %27 = call i64 @llvm.expect.i64(i64 %26, i64 1)
  %28 = icmp ne i64 %27, 0
  br i1 %28, label %29, label %149

29:                                               ; preds = %21
  %30 = load ptr, ptr %6, align 8, !tbaa !3
  %31 = getelementptr inbounds nuw %struct.H5EA_sblock_cache_ud_t, ptr %12, i32 0, i32 0
  store ptr %30, ptr %31, align 8, !tbaa !69
  %32 = load ptr, ptr %7, align 8, !tbaa !8
  %33 = getelementptr inbounds nuw %struct.H5EA_sblock_cache_ud_t, ptr %12, i32 0, i32 1
  store ptr %32, ptr %33, align 8, !tbaa !71
  %34 = load i32, ptr %9, align 4, !tbaa !10
  %35 = getelementptr inbounds nuw %struct.H5EA_sblock_cache_ud_t, ptr %12, i32 0, i32 2
  store i32 %34, ptr %35, align 8, !tbaa !72
  %36 = load i64, ptr %8, align 8, !tbaa !18
  %37 = getelementptr inbounds nuw %struct.H5EA_sblock_cache_ud_t, ptr %12, i32 0, i32 3
  store i64 %36, ptr %37, align 8, !tbaa !73
  %38 = load ptr, ptr %6, align 8, !tbaa !3
  %39 = getelementptr inbounds nuw %struct.H5EA_hdr_t, ptr %38, i32 0, i32 8
  %40 = load ptr, ptr %39, align 8, !tbaa !64
  %41 = load i64, ptr %8, align 8, !tbaa !18
  %42 = load i32, ptr %10, align 4, !tbaa !10
  %43 = call ptr @H5AC_protect(ptr noundef %40, ptr noundef @H5AC_EARRAY_SBLOCK, i64 noundef %41, ptr noundef %12, i32 noundef %42)
  store ptr %43, ptr %11, align 8, !tbaa !12
  %44 = icmp eq ptr null, %43
  br i1 %44, label %45, label %65

45:                                               ; preds = %29
  br label %46

46:                                               ; preds = %45
  br label %47

47:                                               ; preds = %46
  br label %48

48:                                               ; preds = %47
  %49 = load i64, ptr @H5E_EARRAY_g, align 8, !tbaa !18
  %50 = load i64, ptr @H5E_CANTPROTECT_g, align 8, !tbaa !18
  %51 = load i64, ptr %8, align 8, !tbaa !18
  %52 = call i32 (ptr, ptr, i32, i64, i64, ptr, ...) @H5E_printf_stack(ptr noundef @.str.1, ptr noundef @__func__.H5EA__sblock_protect, i32 noundef 289, i64 noundef %49, i64 noundef %50, ptr noundef @.str.12, i64 noundef %51)
  br label %53

53:                                               ; preds = %48
  br label %54

54:                                               ; preds = %53
  store i8 1, ptr %14, align 1, !tbaa !14
  %55 = load i8, ptr %14, align 1, !tbaa !14, !range !16, !noundef !17
  %56 = trunc i8 %55 to i1
  %57 = zext i1 %56 to i8
  store i8 %57, ptr %14, align 1, !tbaa !14
  br label %58

58:                                               ; preds = %54
  br label %59

59:                                               ; preds = %58
  br label %60

60:                                               ; preds = %59
  store ptr null, ptr %13, align 8, !tbaa !12
  br label %112

61:                                               ; No predecessors!
  br label %62

62:                                               ; preds = %61
  br label %63

63:                                               ; preds = %62
  br label %64

64:                                               ; preds = %63
  br label %65

65:                                               ; preds = %64, %29
  %66 = load ptr, ptr %6, align 8, !tbaa !3
  %67 = getelementptr inbounds nuw %struct.H5EA_hdr_t, ptr %66, i32 0, i32 19
  %68 = load ptr, ptr %67, align 8, !tbaa !65
  %69 = icmp ne ptr %68, null
  br i1 %69, label %70, label %110

70:                                               ; preds = %65
  %71 = load ptr, ptr %11, align 8, !tbaa !12
  %72 = getelementptr inbounds nuw %struct.H5EA_sblock_t, ptr %71, i32 0, i32 8
  %73 = load ptr, ptr %72, align 8, !tbaa !66
  %74 = icmp eq ptr null, %73
  br i1 %74, label %75, label %110

75:                                               ; preds = %70
  %76 = load ptr, ptr %6, align 8, !tbaa !3
  %77 = getelementptr inbounds nuw %struct.H5EA_hdr_t, ptr %76, i32 0, i32 19
  %78 = load ptr, ptr %77, align 8, !tbaa !65
  %79 = load ptr, ptr %6, align 8, !tbaa !3
  %80 = getelementptr inbounds nuw %struct.H5EA_hdr_t, ptr %79, i32 0, i32 8
  %81 = load ptr, ptr %80, align 8, !tbaa !64
  %82 = load ptr, ptr %11, align 8, !tbaa !12
  %83 = call i32 @H5AC_proxy_entry_add_child(ptr noundef %78, ptr noundef %81, ptr noundef %82)
  %84 = icmp slt i32 %83, 0
  br i1 %84, label %85, label %104

85:                                               ; preds = %75
  br label %86

86:                                               ; preds = %85
  br label %87

87:                                               ; preds = %86
  br label %88

88:                                               ; preds = %87
  %89 = load i64, ptr @H5E_EARRAY_g, align 8, !tbaa !18
  %90 = load i64, ptr @H5E_CANTSET_g, align 8, !tbaa !18
  %91 = call i32 (ptr, ptr, i32, i64, i64, ptr, ...) @H5E_printf_stack(ptr noundef @.str.1, ptr noundef @__func__.H5EA__sblock_protect, i32 noundef 296, i64 noundef %89, i64 noundef %90, ptr noundef @.str.9)
  br label %92

92:                                               ; preds = %88
  br label %93

93:                                               ; preds = %92
  store i8 1, ptr %14, align 1, !tbaa !14
  %94 = load i8, ptr %14, align 1, !tbaa !14, !range !16, !noundef !17
  %95 = trunc i8 %94 to i1
  %96 = zext i1 %95 to i8
  store i8 %96, ptr %14, align 1, !tbaa !14
  br label %97

97:                                               ; preds = %93
  br label %98

98:                                               ; preds = %97
  br label %99

99:                                               ; preds = %98
  store ptr null, ptr %13, align 8, !tbaa !12
  br label %112

100:                                              ; No predecessors!
  br label %101

101:                                              ; preds = %100
  br label %102

102:                                              ; preds = %101
  br label %103

103:                                              ; preds = %102
  br label %104

104:                                              ; preds = %103, %75
  %105 = load ptr, ptr %6, align 8, !tbaa !3
  %106 = getelementptr inbounds nuw %struct.H5EA_hdr_t, ptr %105, i32 0, i32 19
  %107 = load ptr, ptr %106, align 8, !tbaa !65
  %108 = load ptr, ptr %11, align 8, !tbaa !12
  %109 = getelementptr inbounds nuw %struct.H5EA_sblock_t, ptr %108, i32 0, i32 8
  store ptr %107, ptr %109, align 8, !tbaa !66
  br label %110

110:                                              ; preds = %104, %70, %65
  %111 = load ptr, ptr %11, align 8, !tbaa !12
  store ptr %111, ptr %13, align 8, !tbaa !12
  br label %112

112:                                              ; preds = %110, %99, %60
  %113 = load ptr, ptr %13, align 8, !tbaa !12
  %114 = icmp ne ptr %113, null
  br i1 %114, label %148, label %115

115:                                              ; preds = %112
  %116 = load ptr, ptr %11, align 8, !tbaa !12
  %117 = icmp ne ptr %116, null
  br i1 %117, label %118, label %147

118:                                              ; preds = %115
  %119 = load ptr, ptr %6, align 8, !tbaa !3
  %120 = getelementptr inbounds nuw %struct.H5EA_hdr_t, ptr %119, i32 0, i32 8
  %121 = load ptr, ptr %120, align 8, !tbaa !64
  %122 = load ptr, ptr %11, align 8, !tbaa !12
  %123 = getelementptr inbounds nuw %struct.H5EA_sblock_t, ptr %122, i32 0, i32 5
  %124 = load i64, ptr %123, align 8, !tbaa !32
  %125 = load ptr, ptr %11, align 8, !tbaa !12
  %126 = call i32 @H5AC_unprotect(ptr noundef %121, ptr noundef @H5AC_EARRAY_SBLOCK, i64 noundef %124, ptr noundef %125, i32 noundef 0)
  %127 = icmp slt i32 %126, 0
  br i1 %127, label %128, label %147

128:                                              ; preds = %118
  br label %129

129:                                              ; preds = %128
  br label %130

130:                                              ; preds = %129
  br label %131

131:                                              ; preds = %130
  %132 = load i64, ptr @H5E_EARRAY_g, align 8, !tbaa !18
  %133 = load i64, ptr @H5E_CANTUNPROTECT_g, align 8, !tbaa !18
  %134 = load ptr, ptr %11, align 8, !tbaa !12
  %135 = getelementptr inbounds nuw %struct.H5EA_sblock_t, ptr %134, i32 0, i32 5
  %136 = load i64, ptr %135, align 8, !tbaa !32
  %137 = call i32 (ptr, ptr, i32, i64, i64, ptr, ...) @H5E_printf_stack(ptr noundef @.str.1, ptr noundef @__func__.H5EA__sblock_protect, i32 noundef 311, i64 noundef %132, i64 noundef %133, ptr noundef @.str.13, i64 noundef %136)
  br label %138

138:                                              ; preds = %131
  br label %139

139:                                              ; preds = %138
  store i8 1, ptr %14, align 1, !tbaa !14
  %140 = load i8, ptr %14, align 1, !tbaa !14, !range !16, !noundef !17
  %141 = trunc i8 %140 to i1
  %142 = zext i1 %141 to i8
  store i8 %142, ptr %14, align 1, !tbaa !14
  br label %143

143:                                              ; preds = %139
  br label %144

144:                                              ; preds = %143
  store ptr null, ptr %13, align 8, !tbaa !12
  br label %145

145:                                              ; preds = %144
  br label %146

146:                                              ; preds = %145
  br label %147

147:                                              ; preds = %146, %118, %115
  br label %148

148:                                              ; preds = %147, %112
  br label %149

149:                                              ; preds = %148, %21
  %150 = load ptr, ptr %13, align 8, !tbaa !12
  call void @llvm.lifetime.end.p0(i64 1, ptr %14) #4
  call void @llvm.lifetime.end.p0(i64 8, ptr %13) #4
  call void @llvm.lifetime.end.p0(i64 32, ptr %12) #4
  call void @llvm.lifetime.end.p0(i64 8, ptr %11) #4
  ret ptr %150
}