; Function Attrs: nounwind uwtable
define ptr @H5EA__sblock_protect(ptr noundef %0, ptr noundef %1, i64 noundef %2, i32 noundef %3, i32 noundef %4) local_unnamed_addr #0 {
  %6 = alloca %struct.H5EA_sblock_cache_ud_t, align 8
  call void @llvm.lifetime.start.p0(i64 32, ptr nonnull %6) #3
  %7 = load i8, ptr @H5EA_init_g, align 1, !tbaa !3, !range !7, !noundef !8
  %8 = trunc nuw i8 %7 to i1
  %9 = load i8, ptr @H5_libterm_g, align 1, !range !7
  %10 = trunc nuw i8 %9 to i1
  %11 = xor i1 %10, true
  %12 = select i1 %8, i1 true, i1 %11
  br i1 %12, label %13, label %.thread, !prof !9

13:                                               ; preds = %5
  store ptr %0, ptr %6, align 8, !tbaa !63
  %14 = getelementptr inbounds nuw i8, ptr %6, i64 8
  store ptr %1, ptr %14, align 8, !tbaa !65
  %15 = getelementptr inbounds nuw i8, ptr %6, i64 16
  store i32 %3, ptr %15, align 8, !tbaa !66
  %16 = getelementptr inbounds nuw i8, ptr %6, i64 24
  store i64 %2, ptr %16, align 8, !tbaa !67
  %17 = getelementptr inbounds nuw i8, ptr %0, i64 384
  %18 = load ptr, ptr %17, align 8, !tbaa !58
  %19 = call ptr @H5AC_protect(ptr noundef %18, ptr noundef nonnull @H5AC_EARRAY_SBLOCK, i64 noundef %2, ptr noundef nonnull %6, i32 noundef %4) #3
  %20 = icmp eq ptr %19, null
  br i1 %20, label %21, label %25

21:                                               ; preds = %13
  %22 = load i64, ptr @H5E_EARRAY_g, align 8, !tbaa !10
  %23 = load i64, ptr @H5E_CANTPROTECT_g, align 8, !tbaa !10
  %24 = call i32 (ptr, ptr, i32, i64, i64, ptr, ...) @H5E_printf_stack(ptr noundef nonnull @.str.1, ptr noundef nonnull @__func__.H5EA__sblock_protect, i32 noundef 289, i64 noundef %22, i64 noundef %23, ptr noundef nonnull @.str.12, i64 noundef %2) #3
  br label %.thread

25:                                               ; preds = %13
  %26 = getelementptr inbounds nuw i8, ptr %0, i64 472
  %27 = load ptr, ptr %26, align 8, !tbaa !59
  %.not = icmp eq ptr %27, null
  br i1 %.not, label %.thread, label %28

28:                                               ; preds = %25
  %29 = getelementptr inbounds nuw i8, ptr %19, i64 304
  %30 = load ptr, ptr %29, align 8, !tbaa !60
  %31 = icmp eq ptr %30, null
  br i1 %31, label %32, label %.thread

32:                                               ; preds = %28
  %33 = load ptr, ptr %17, align 8, !tbaa !58
  %34 = call i32 @H5AC_proxy_entry_add_child(ptr noundef nonnull %27, ptr noundef %33, ptr noundef nonnull %19) #3
  %35 = icmp slt i32 %34, 0
  br i1 %35, label %38, label %36

36:                                               ; preds = %32
  %37 = load ptr, ptr %26, align 8, !tbaa !59
  store ptr %37, ptr %29, align 8, !tbaa !60
  br label %.thread

38:                                               ; preds = %32
  %39 = load i64, ptr @H5E_EARRAY_g, align 8, !tbaa !10
  %40 = load i64, ptr @H5E_CANTSET_g, align 8, !tbaa !10
  %41 = call i32 (ptr, ptr, i32, i64, i64, ptr, ...) @H5E_printf_stack(ptr noundef nonnull @.str.1, ptr noundef nonnull @__func__.H5EA__sblock_protect, i32 noundef 296, i64 noundef %39, i64 noundef %40, ptr noundef nonnull @.str.9) #3
  %42 = load ptr, ptr %17, align 8, !tbaa !58
  %43 = getelementptr inbounds nuw i8, ptr %19, i64 280
  %44 = load i64, ptr %43, align 8, !tbaa !28
  %45 = call i32 @H5AC_unprotect(ptr noundef %42, ptr noundef nonnull @H5AC_EARRAY_SBLOCK, i64 noundef %44, ptr noundef nonnull %19, i32 noundef 0) #3
  %46 = icmp slt i32 %45, 0
  br i1 %46, label %47, label %.thread

47:                                               ; preds = %38
  %48 = load i64, ptr @H5E_EARRAY_g, align 8, !tbaa !10
  %49 = load i64, ptr @H5E_CANTUNPROTECT_g, align 8, !tbaa !10
  %50 = load i64, ptr %43, align 8, !tbaa !28
  %51 = call i32 (ptr, ptr, i32, i64, i64, ptr, ...) @H5E_printf_stack(ptr noundef nonnull @.str.1, ptr noundef nonnull @__func__.H5EA__sblock_protect, i32 noundef 311, i64 noundef %48, i64 noundef %49, ptr noundef nonnull @.str.13, i64 noundef %50) #3
  br label %.thread

.thread:                                          ; preds = %21, %25, %28, %36, %47, %38, %5
  %.0 = phi ptr [ null, %47 ], [ null, %38 ], [ null, %5 ], [ %19, %25 ], [ %19, %28 ], [ %19, %36 ], [ null, %21 ]
  call void @llvm.lifetime.end.p0(i64 32, ptr nonnull %6) #3
  ret ptr %.0
}